target datalayout = "e-m:e-p270:32:32-p271:32:32-p272:64:64-i64:64-i128:128-f80:128-n8:16:32:64-S128"
target triple = "x86_64-pc-linux-gnu"

%struct.IDAMemRec = type { ptr, double, ptr, ptr, i32, double, double, ptr, i32, i32, ptr, ptr, i32, i32, [6 x ptr], [6 x double], [6 x double], [6 x double], [6 x double], [6 x double], ptr, ptr, ptr, ptr, ptr, ptr, ptr, ptr, ptr, ptr, ptr, ptr, ptr, ptr, ptr, ptr, ptr, double, ptr, ptr, i32, i32, i32, i32, i32, i32, i32, i32, double, double, double, i32, double, i32, i32, i32, i32, i32, double, double, double, double, double, double, double, double, double, double, double, double, double, double, double, double, i32, i32, i32, i32, i64, double, double, double, double, double, double, double, double, double, i64, i64, i64, i64, i64, i64, i64, i64, i64, i64, i64, double, i32, i32, i32, i32, i32, ptr, i32, ptr, ptr, ptr, ptr, ptr, ptr, ptr, double, i32, ptr, i32, ptr, ptr, double, double, double, ptr, ptr, ptr, double, double, i32, i32, i64, ptr, i32, [6 x double], [5 x double], [6 x ptr], [6 x ptr] }
%struct._generic_N_Vector = type { ptr, ptr, ptr }
%struct._generic_N_Vector_Ops = type { ptr, ptr, ptr, ptr, ptr, ptr, ptr, ptr, ptr, ptr, ptr, ptr, ptr, ptr, ptr, ptr, ptr, ptr, ptr, ptr, ptr, ptr, ptr, ptr, ptr, ptr, ptr, ptr, ptr, ptr, ptr, ptr, ptr, ptr, ptr, ptr, ptr, ptr, ptr, ptr, ptr, ptr, ptr, ptr, ptr, ptr, ptr, ptr, ptr, ptr, ptr, ptr, ptr, ptr, ptr, ptr }

@.str = private unnamed_addr constant [109 x i8] c"generated/home/dtcxzyw/WorkSpace/Projects/compilers/llvm-opt-benchmark/bench/sundials/sundials/src/ida/ida.c\00", align 1
@.str.7 = private unnamed_addr constant [48 x i8] c"A required vector operation is not implemented.\00", align 1
@__func__.IDAInitialSetup = private unnamed_addr constant [16 x i8] c"IDAInitialSetup\00", align 1
@.str.30 = private unnamed_addr constant [37 x i8] c"id = NULL but suppressalg option on.\00", align 1
@.str.31 = private unnamed_addr constant [47 x i8] c"No integration tolerances have been specified.\00", align 1
@.str.32 = private unnamed_addr constant [41 x i8] c"The user-provide EwtSet function failed.\00", align 1
@.str.33 = private unnamed_addr constant [42 x i8] c"Some initial ewt component = 0.0 illegal.\00", align 1
@.str.34 = private unnamed_addr constant [33 x i8] c"y0 fails to satisfy constraints.\00", align 1
@.str.35 = private unnamed_addr constant [41 x i8] c"The linear solver's init routine failed.\00", align 1
@.str.36 = private unnamed_addr constant [44 x i8] c"The nonlinear solver's init routine failed.\00", align 1

; Function Attrs: nounwind uwtable
define i32 @IDAInitialSetup(ptr noundef %0) #0 {
  %2 = alloca i32, align 4
  %3 = alloca ptr, align 8
  %4 = alloca i32, align 4
  %5 = alloca i32, align 4
  %6 = alloca i32, align 4
  store ptr %0, ptr %3, align 8, !tbaa !8
  call void @llvm.lifetime.start.p0(i64 4, ptr %4) #10
  call void @llvm.lifetime.start.p0(i64 4, ptr %5) #10
  %7 = load ptr, ptr %3, align 8, !tbaa !8
  %8 = getelementptr inbounds nuw %struct.IDAMemRec, ptr %7, i32 0, i32 13
  %9 = load i32, ptr %8, align 4, !tbaa !42
  %10 = icmp ne i32 %9, 0
  br i1 %10, label %11, label %24

11:                                               ; preds = %1
  %12 = load ptr, ptr %3, align 8, !tbaa !8
  %13 = getelementptr inbounds nuw %struct.IDAMemRec, ptr %12, i32 0, i32 14
  %14 = getelementptr inbounds [6 x ptr], ptr %13, i64 0, i64 0
  %15 = load ptr, ptr %14, align 8, !tbaa !75
  %16 = getelementptr inbounds nuw %struct._generic_N_Vector, ptr %15, i32 0, i32 1
  %17 = load ptr, ptr %16, align 8, !tbaa !76
  %18 = getelementptr inbounds nuw %struct._generic_N_Vector_Ops, ptr %17, i32 0, i32 22
  %19 = load ptr, ptr %18, align 8, !tbaa !150
  %20 = icmp eq ptr %19, null
  br i1 %20, label %21, label %23

21:                                               ; preds = %11
  %22 = load ptr, ptr %3, align 8, !tbaa !8
  call void (ptr, i32, i32, ptr, ptr, ptr, ...) @IDAProcessError(ptr noundef %22, i32 noundef -22, i32 noundef 1990, ptr noundef @__func__.IDAInitialSetup, ptr noundef @.str, ptr noundef @.str.7)
  store i32 -22, ptr %2, align 4
  store i32 1, ptr %6, align 4
  br label %131

23:                                               ; preds = %11
  br label %24

24:                                               ; preds = %23, %1
  %25 = load ptr, ptr %3, align 8, !tbaa !8
  %26 = getelementptr inbounds nuw %struct.IDAMemRec, ptr %25, i32 0, i32 13
  %27 = load i32, ptr %26, align 4, !tbaa !42
  %28 = icmp ne i32 %27, 0
  br i1 %28, label %29, label %36

29:                                               ; preds = %24
  %30 = load ptr, ptr %3, align 8, !tbaa !8
  %31 = getelementptr inbounds nuw %struct.IDAMemRec, ptr %30, i32 0, i32 26
  %32 = load ptr, ptr %31, align 8, !tbaa !43
  %33 = icmp eq ptr %32, null
  br i1 %33, label %34, label %36

34:                                               ; preds = %29
  %35 = load ptr, ptr %3, align 8, !tbaa !8
  call void (ptr, i32, i32, ptr, ptr, ptr, ...) @IDAProcessError(ptr noundef %35, i32 noundef -22, i32 noundef 1999, ptr noundef @__func__.IDAInitialSetup, ptr noundef @.str, ptr noundef @.str.30)
  store i32 -22, ptr %2, align 4
  store i32 1, ptr %6, align 4
  br label %131

36:                                               ; preds = %29, %24
  %37 = load ptr, ptr %3, align 8, !tbaa !8
  %38 = getelementptr inbounds nuw %struct.IDAMemRec, ptr %37, i32 0, i32 4
  %39 = load i32, ptr %38, align 8, !tbaa !22
  %40 = icmp eq i32 %39, 0
  br i1 %40, label %41, label %43

41:                                               ; preds = %36
  %42 = load ptr, ptr %3, align 8, !tbaa !8
  call void (ptr, i32, i32, ptr, ptr, ptr, ...) @IDAProcessError(ptr noundef %42, i32 noundef -22, i32 noundef 2007, ptr noundef @__func__.IDAInitialSetup, ptr noundef @.str, ptr noundef @.str.31)
  store i32 -22, ptr %2, align 4
  store i32 1, ptr %6, align 4
  br label %131

43:                                               ; preds = %36
  %44 = load ptr, ptr %3, align 8, !tbaa !8
  %45 = getelementptr inbounds nuw %struct.IDAMemRec, ptr %44, i32 0, i32 9
  %46 = load i32, ptr %45, align 4, !tbaa !24
  %47 = icmp ne i32 %46, 0
  br i1 %47, label %48, label %54

48:                                               ; preds = %43
  %49 = load ptr, ptr %3, align 8, !tbaa !8
  %50 = getelementptr inbounds nuw %struct.IDAMemRec, ptr %49, i32 0, i32 3
  %51 = load ptr, ptr %50, align 8, !tbaa !21
  %52 = load ptr, ptr %3, align 8, !tbaa !8
  %53 = getelementptr inbounds nuw %struct.IDAMemRec, ptr %52, i32 0, i32 11
  store ptr %51, ptr %53, align 8, !tbaa !26
  br label %58

54:                                               ; preds = %43
  %55 = load ptr, ptr %3, align 8, !tbaa !8
  %56 = load ptr, ptr %3, align 8, !tbaa !8
  %57 = getelementptr inbounds nuw %struct.IDAMemRec, ptr %56, i32 0, i32 11
  store ptr %55, ptr %57, align 8, !tbaa !26
  br label %58

58:                                               ; preds = %54, %48
  %59 = load ptr, ptr %3, align 8, !tbaa !8
  %60 = getelementptr inbounds nuw %struct.IDAMemRec, ptr %59, i32 0, i32 10
  %61 = load ptr, ptr %60, align 8, !tbaa !25
  %62 = load ptr, ptr %3, align 8, !tbaa !8
  %63 = getelementptr inbounds nuw %struct.IDAMemRec, ptr %62, i32 0, i32 14
  %64 = getelementptr inbounds [6 x ptr], ptr %63, i64 0, i64 0
  %65 = load ptr, ptr %64, align 8, !tbaa !75
  %66 = load ptr, ptr %3, align 8, !tbaa !8
  %67 = getelementptr inbounds nuw %struct.IDAMemRec, ptr %66, i32 0, i32 20
  %68 = load ptr, ptr %67, align 8, !tbaa !125
  %69 = load ptr, ptr %3, align 8, !tbaa !8
  %70 = getelementptr inbounds nuw %struct.IDAMemRec, ptr %69, i32 0, i32 11
  %71 = load ptr, ptr %70, align 8, !tbaa !26
  %72 = call i32 %61(ptr noundef %65, ptr noundef %68, ptr noundef %71)
  store i32 %72, ptr %5, align 4, !tbaa !64
  %73 = load i32, ptr %5, align 4, !tbaa !64
  %74 = icmp ne i32 %73, 0
  br i1 %74, label %75, label %85

75:                                               ; preds = %58
  %76 = load ptr, ptr %3, align 8, !tbaa !8
  %77 = getelementptr inbounds nuw %struct.IDAMemRec, ptr %76, i32 0, i32 4
  %78 = load i32, ptr %77, align 8, !tbaa !22
  %79 = icmp eq i32 %78, 3
  br i1 %79, label %80, label %82

80:                                               ; preds = %75
  %81 = load ptr, ptr %3, align 8, !tbaa !8
  call void (ptr, i32, i32, ptr, ptr, ptr, ...) @IDAProcessError(ptr noundef %81, i32 noundef -22, i32 noundef 2023, ptr noundef @__func__.IDAInitialSetup, ptr noundef @.str, ptr noundef @.str.32)
  br label %84

82:                                               ; preds = %75
  %83 = load ptr, ptr %3, align 8, !tbaa !8
  call void (ptr, i32, i32, ptr, ptr, ptr, ...) @IDAProcessError(ptr noundef %83, i32 noundef -22, i32 noundef 2028, ptr noundef @__func__.IDAInitialSetup, ptr noundef @.str, ptr noundef @.str.33)
  br label %84

84:                                               ; preds = %82, %80
  store i32 -22, ptr %2, align 4
  store i32 1, ptr %6, align 4
  br label %131

85:                                               ; preds = %58
  %86 = load ptr, ptr %3, align 8, !tbaa !8
  %87 = getelementptr inbounds nuw %struct.IDAMemRec, ptr %86, i32 0, i32 12
  %88 = load i32, ptr %87, align 8, !tbaa !45
  %89 = icmp ne i32 %88, 0
  br i1 %89, label %90, label %107

90:                                               ; preds = %85
  %91 = load ptr, ptr %3, align 8, !tbaa !8
  %92 = getelementptr inbounds nuw %struct.IDAMemRec, ptr %91, i32 0, i32 27
  %93 = load ptr, ptr %92, align 8, !tbaa !44
  %94 = load ptr, ptr %3, align 8, !tbaa !8
  %95 = getelementptr inbounds nuw %struct.IDAMemRec, ptr %94, i32 0, i32 14
  %96 = getelementptr inbounds [6 x ptr], ptr %95, i64 0, i64 0
  %97 = load ptr, ptr %96, align 8, !tbaa !75
  %98 = load ptr, ptr %3, align 8, !tbaa !8
  %99 = getelementptr inbounds nuw %struct.IDAMemRec, ptr %98, i32 0, i32 31
  %100 = load ptr, ptr %99, align 8, !tbaa !132
  %101 = call i32 @N_VConstrMask(ptr noundef %93, ptr noundef %97, ptr noundef %100)
  store i32 %101, ptr %4, align 4, !tbaa !64
  %102 = load i32, ptr %4, align 4, !tbaa !64
  %103 = icmp ne i32 %102, 0
  br i1 %103, label %106, label %104

104:                                              ; preds = %90
  %105 = load ptr, ptr %3, align 8, !tbaa !8
  call void (ptr, i32, i32, ptr, ptr, ptr, ...) @IDAProcessError(ptr noundef %105, i32 noundef -22, i32 noundef 2041, ptr noundef @__func__.IDAInitialSetup, ptr noundef @.str, ptr noundef @.str.34)
  store i32 -22, ptr %2, align 4
  store i32 1, ptr %6, align 4
  br label %131

106:                                              ; preds = %90
  br label %107

107:                                              ; preds = %106, %85
  %108 = load ptr, ptr %3, align 8, !tbaa !8
  %109 = getelementptr inbounds nuw %struct.IDAMemRec, ptr %108, i32 0, i32 108
  %110 = load ptr, ptr %109, align 8, !tbaa !85
  %111 = icmp ne ptr %110, null
  br i1 %111, label %112, label %123

112:                                              ; preds = %107
  %113 = load ptr, ptr %3, align 8, !tbaa !8
  %114 = getelementptr inbounds nuw %struct.IDAMemRec, ptr %113, i32 0, i32 108
  %115 = load ptr, ptr %114, align 8, !tbaa !85
  %116 = load ptr, ptr %3, align 8, !tbaa !8
  %117 = call i32 %115(ptr noundef %116)
  store i32 %117, ptr %5, align 4, !tbaa !64
  %118 = load i32, ptr %5, align 4, !tbaa !64
  %119 = icmp ne i32 %118, 0
  br i1 %119, label %120, label %122

120:                                              ; preds = %112
  %121 = load ptr, ptr %3, align 8, !tbaa !8
  call void (ptr, i32, i32, ptr, ptr, ptr, ...) @IDAProcessError(ptr noundef %121, i32 noundef -5, i32 noundef 2053, ptr noundef @__func__.IDAInitialSetup, ptr noundef @.str, ptr noundef @.str.35)
  store i32 -5, ptr %2, align 4
  store i32 1, ptr %6, align 4
  br label %131

122:                                              ; preds = %112
  br label %123

123:                                              ; preds = %122, %107
  %124 = load ptr, ptr %3, align 8, !tbaa !8
  %125 = call i32 @idaNlsInit(ptr noundef %124)
  store i32 %125, ptr %5, align 4, !tbaa !64
  %126 = load i32, ptr %5, align 4, !tbaa !64
  %127 = icmp ne i32 %126, 0
  br i1 %127, label %128, label %130

128:                                              ; preds = %123
  %129 = load ptr, ptr %3, align 8, !tbaa !8
  call void (ptr, i32, i32, ptr, ptr, ptr, ...) @IDAProcessError(ptr noundef %129, i32 noundef -15, i32 noundef 2064, ptr noundef @__func__.IDAInitialSetup, ptr noundef @.str, ptr noundef @.str.36)
  store i32 -15, ptr %2, align 4
  store i32 1, ptr %6, align 4
  br label %131

130:                                              ; preds = %123
  store i32 0, ptr %2, align 4
  store i32 1, ptr %6, align 4
  br label %131

131:                                              ; preds = %130, %128, %120, %104, %84, %41, %34, %21
  call void @llvm.lifetime.end.p0(i64 4, ptr %5) #10
  call void @llvm.lifetime.end.p0(i64 4, ptr %4) #10
  %132 = load i32, ptr %2, align 4
  ret i32 %132
}