; Function Attrs: nounwind uwtable
define range(i32 -22, 1) i32 @IDAInitialSetup(ptr noundef %0) local_unnamed_addr #0 {
  %2 = getelementptr inbounds nuw i8, ptr %0, i64 92
  %3 = load i32, ptr %2, align 4, !tbaa !119
  %.not = icmp eq i32 %3, 0
  br i1 %.not, label %.thread, label %4

4:                                                ; preds = %1
  %5 = getelementptr inbounds nuw i8, ptr %0, i64 96
  %6 = load ptr, ptr %5, align 8, !tbaa !78
  %7 = getelementptr inbounds nuw i8, ptr %6, i64 8
  %8 = load ptr, ptr %7, align 8, !tbaa !50
  %9 = getelementptr inbounds nuw i8, ptr %8, i64 176
  %10 = load ptr, ptr %9, align 8, !tbaa !151
  %11 = icmp eq ptr %10, null
  br i1 %11, label %12, label %13

12:                                               ; preds = %4
  tail call void (ptr, i32, i32, ptr, ptr, ptr, ...) @IDAProcessError(ptr noundef nonnull %0, i32 noundef -22, i32 noundef 1990, ptr noundef nonnull @__func__.IDAInitialSetup, ptr noundef nonnull @.str, ptr noundef nonnull @.str.7)
  br label %62

13:                                               ; preds = %4
  %14 = getelementptr inbounds nuw i8, ptr %0, i64 432
  %15 = load ptr, ptr %14, align 8, !tbaa !96
  %16 = icmp eq ptr %15, null
  br i1 %16, label %17, label %.thread

17:                                               ; preds = %13
  tail call void (ptr, i32, i32, ptr, ptr, ptr, ...) @IDAProcessError(ptr noundef nonnull %0, i32 noundef -22, i32 noundef 1999, ptr noundef nonnull @__func__.IDAInitialSetup, ptr noundef nonnull @.str, ptr noundef nonnull @.str.30)
  br label %62

.thread:                                          ; preds = %1, %13
  %18 = getelementptr inbounds nuw i8, ptr %0, i64 32
  %19 = load i32, ptr %18, align 8, !tbaa !101
  %20 = icmp eq i32 %19, 0
  br i1 %20, label %21, label %22

21:                                               ; preds = %.thread
  tail call void (ptr, i32, i32, ptr, ptr, ptr, ...) @IDAProcessError(ptr noundef nonnull %0, i32 noundef -22, i32 noundef 2007, ptr noundef nonnull @__func__.IDAInitialSetup, ptr noundef nonnull @.str, ptr noundef nonnull @.str.31)
  br label %62

22:                                               ; preds = %.thread
  %23 = getelementptr inbounds nuw i8, ptr %0, i64 68
  %24 = load i32, ptr %23, align 4, !tbaa !102
  %.not37 = icmp eq i32 %24, 0
  br i1 %.not37, label %28, label %25

25:                                               ; preds = %22
  %26 = getelementptr inbounds nuw i8, ptr %0, i64 24
  %27 = load ptr, ptr %26, align 8, !tbaa !152
  br label %28

28:                                               ; preds = %22, %25
  %.sink = phi ptr [ %27, %25 ], [ %0, %22 ]
  %29 = getelementptr inbounds nuw i8, ptr %0, i64 80
  store ptr %.sink, ptr %29, align 8, !tbaa !104
  %30 = getelementptr inbounds nuw i8, ptr %0, i64 72
  %31 = load ptr, ptr %30, align 8, !tbaa !103
  %32 = getelementptr inbounds nuw i8, ptr %0, i64 96
  %33 = load ptr, ptr %32, align 8, !tbaa !78
  %34 = getelementptr inbounds nuw i8, ptr %0, i64 384
  %35 = load ptr, ptr %34, align 8, !tbaa !69
  %36 = tail call i32 %31(ptr noundef %33, ptr noundef %35, ptr noundef %.sink) #13
  %.not38 = icmp eq i32 %36, 0
  br i1 %.not38, label %42, label %37

37:                                               ; preds = %28
  %38 = load i32, ptr %18, align 8, !tbaa !101
  %39 = icmp eq i32 %38, 3
  br i1 %39, label %40, label %41

40:                                               ; preds = %37
  tail call void (ptr, i32, i32, ptr, ptr, ptr, ...) @IDAProcessError(ptr noundef nonnull %0, i32 noundef -22, i32 noundef 2023, ptr noundef nonnull @__func__.IDAInitialSetup, ptr noundef nonnull @.str, ptr noundef nonnull @.str.32)
  br label %62

41:                                               ; preds = %37
  tail call void (ptr, i32, i32, ptr, ptr, ptr, ...) @IDAProcessError(ptr noundef nonnull %0, i32 noundef -22, i32 noundef 2028, ptr noundef nonnull @__func__.IDAInitialSetup, ptr noundef nonnull @.str, ptr noundef nonnull @.str.33)
  br label %62

42:                                               ; preds = %28
  %43 = getelementptr inbounds nuw i8, ptr %0, i64 88
  %44 = load i32, ptr %43, align 8, !tbaa !148
  %.not39 = icmp eq i32 %44, 0
  br i1 %.not39, label %53, label %45

45:                                               ; preds = %42
  %46 = getelementptr inbounds nuw i8, ptr %0, i64 440
  %47 = load ptr, ptr %46, align 8, !tbaa !94
  %48 = load ptr, ptr %32, align 8, !tbaa !78
  %49 = getelementptr inbounds nuw i8, ptr %0, i64 472
  %50 = load ptr, ptr %49, align 8, !tbaa !76
  %51 = tail call i32 @N_VConstrMask(ptr noundef %47, ptr noundef %48, ptr noundef %50) #13
  %.not40 = icmp eq i32 %51, 0
  br i1 %.not40, label %52, label %53

52:                                               ; preds = %45
  tail call void (ptr, i32, i32, ptr, ptr, ptr, ...) @IDAProcessError(ptr noundef nonnull %0, i32 noundef -22, i32 noundef 2041, ptr noundef nonnull @__func__.IDAInitialSetup, ptr noundef nonnull @.str, ptr noundef nonnull @.str.34)
  br label %62

53:                                               ; preds = %45, %42
  %54 = getelementptr inbounds nuw i8, ptr %0, i64 1008
  %55 = load ptr, ptr %54, align 8, !tbaa !153
  %.not41 = icmp eq ptr %55, null
  br i1 %.not41, label %59, label %56

56:                                               ; preds = %53
  %57 = tail call i32 %55(ptr noundef nonnull %0) #13
  %.not42 = icmp eq i32 %57, 0
  br i1 %.not42, label %59, label %58

58:                                               ; preds = %56
  tail call void (ptr, i32, i32, ptr, ptr, ptr, ...) @IDAProcessError(ptr noundef nonnull %0, i32 noundef -5, i32 noundef 2053, ptr noundef nonnull @__func__.IDAInitialSetup, ptr noundef nonnull @.str, ptr noundef nonnull @.str.35)
  br label %62

59:                                               ; preds = %56, %53
  %60 = tail call i32 @idaNlsInit(ptr noundef nonnull %0) #13
  %.not43 = icmp eq i32 %60, 0
  br i1 %.not43, label %62, label %61

61:                                               ; preds = %59
  tail call void (ptr, i32, i32, ptr, ptr, ptr, ...) @IDAProcessError(ptr noundef nonnull %0, i32 noundef -15, i32 noundef 2064, ptr noundef nonnull @__func__.IDAInitialSetup, ptr noundef nonnull @.str, ptr noundef nonnull @.str.36)
  br label %62

62:                                               ; preds = %59, %40, %41, %61, %58, %52, %21, %17, %12
  %.0 = phi i32 [ -22, %12 ], [ -22, %17 ], [ -22, %21 ], [ -5, %58 ], [ -15, %61 ], [ -22, %52 ], [ -22, %41 ], [ -22, %40 ], [ 0, %59 ]
  ret i32 %.0
}